target datalayout = "e-m:e-p270:32:32-p271:32:32-p272:64:64-i64:64-f80:128-n8:16:32:64-S128"
target triple = "x86_64-pc-linux-gnu"

@.str = private unnamed_addr constant [3 x i8] c"%d\00", align 1
@.str.1 = private unnamed_addr constant [4 x i8] c"%d\0A\00", align 1
@.str.2 = private unnamed_addr constant [3 x i8] c"%c\00", align 1
@.str.3 = private unnamed_addr constant [2 x i8] c"\0A\00", align 1
@.str.4 = private unnamed_addr constant [3 x i8] c"NO\00", align 1

; Function Attrs: noinline nounwind uwtable
define dso_local void @main() #0 {
  %1 = alloca [500 x i8], align 16
  %2 = alloca [10 x i8], align 1
  %3 = alloca i32, align 4
  %4 = alloca i32, align 4
  %5 = alloca i32, align 4
  %6 = alloca i32, align 4
  %7 = alloca i32, align 4
  %8 = alloca i32, align 4
  %9 = alloca i32, align 4
  %10 = alloca [500 x i32], align 16
  store i32 0, i32* %4, align 4
  %11 = call i32 (i8*, ...) @__isoc99_scanf(i8* getelementptr inbounds ([3 x i8], [3 x i8]* @.str, i64 0, i64 0), i32* %3)
  %12 = getelementptr inbounds [10 x i8], [10 x i8]* %2, i64 0, i64 0
  %13 = call i32 (i8*, ...) bitcast (i32 (...)* @gets to i32 (i8*, ...)*)(i8* %12)
  %14 = getelementptr inbounds [500 x i8], [500 x i8]* %1, i64 0, i64 0
  %15 = call i32 (i8*, ...) bitcast (i32 (...)* @gets to i32 (i8*, ...)*)(i8* %14)
  %16 = getelementptr inbounds [500 x i8], [500 x i8]* %1, i64 0, i64 0
  %17 = call i64 @strlen(i8* %16) #3
  %18 = trunc i64 %17 to i32
  store i32 %18, i32* %8, align 4
  %19 = getelementptr inbounds [500 x i32], [500 x i32]* %10, i64 0, i64 0
  store i32 1, i32* %19, align 16
  store i32 1, i32* %5, align 4
  br label %20

20:                                               ; preds = %83, %0
  %21 = load i32, i32* %5, align 4
  %22 = load i32, i32* %8, align 4
  %23 = load i32, i32* %3, align 4
  %24 = sub nsw i32 %22, %23
  %25 = icmp sle i32 %21, %24
  br i1 %25, label %26, label %86

26:                                               ; preds = %20
  store i32 0, i32* %6, align 4
  br label %27

27:                                               ; preds = %71, %26
  %28 = load i32, i32* %6, align 4
  %29 = load i32, i32* %5, align 4
  %30 = icmp slt i32 %28, %29
  br i1 %30, label %31, label %74

31:                                               ; preds = %27
  store i32 0, i32* %7, align 4
  br label %32

32:                                               ; preds = %54, %31
  %33 = load i32, i32* %7, align 4
  %34 = load i32, i32* %3, align 4
  %35 = icmp slt i32 %33, %34
  br i1 %35, label %36, label %57

36:                                               ; preds = %32
  %37 = load i32, i32* %5, align 4
  %38 = load i32, i32* %7, align 4
  %39 = add nsw i32 %37, %38
  %40 = sext i32 %39 to i64
  %41 = getelementptr inbounds [500 x i8], [500 x i8]* %1, i64 0, i64 %40
  %42 = load i8, i8* %41, align 1
  %43 = sext i8 %42 to i32
  %44 = load i32, i32* %6, align 4
  %45 = load i32, i32* %7, align 4
  %46 = add nsw i32 %44, %45
  %47 = sext i32 %46 to i64
  %48 = getelementptr inbounds [500 x i8], [500 x i8]* %1, i64 0, i64 %47
  %49 = load i8, i8* %48, align 1
  %50 = sext i8 %49 to i32
  %51 = icmp ne i32 %43, %50
  br i1 %51, label %52, label %53

52:                                               ; preds = %36
  br label %57

53:                                               ; preds = %36
  br label %54

54:                                               ; preds = %53
  %55 = load i32, i32* %7, align 4
  %56 = add nsw i32 %55, 1
  store i32 %56, i32* %7, align 4
  br label %32

57:                                               ; preds = %52, %32
  %58 = load i32, i32* %7, align 4
  %59 = load i32, i32* %3, align 4
  %60 = icmp eq i32 %58, %59
  br i1 %60, label %61, label %70

61:                                               ; preds = %57
  %62 = load i32, i32* %6, align 4
  %63 = sext i32 %62 to i64
  %64 = getelementptr inbounds [500 x i32], [500 x i32]* %10, i64 0, i64 %63
  %65 = load i32, i32* %64, align 4
  %66 = add nsw i32 %65, 1
  store i32 %66, i32* %64, align 4
  %67 = load i32, i32* %5, align 4
  %68 = sext i32 %67 to i64
  %69 = getelementptr inbounds [500 x i32], [500 x i32]* %10, i64 0, i64 %68
  store i32 0, i32* %69, align 4
  br label %74

70:                                               ; preds = %57
  br label %71

71:                                               ; preds = %70
  %72 = load i32, i32* %6, align 4
  %73 = add nsw i32 %72, 1
  store i32 %73, i32* %6, align 4
  br label %27

74:                                               ; preds = %61, %27
  %75 = load i32, i32* %6, align 4
  %76 = load i32, i32* %5, align 4
  %77 = icmp eq i32 %75, %76
  br i1 %77, label %78, label %82

78:                                               ; preds = %74
  %79 = load i32, i32* %5, align 4
  %80 = sext i32 %79 to i64
  %81 = getelementptr inbounds [500 x i32], [500 x i32]* %10, i64 0, i64 %80
  store i32 1, i32* %81, align 4
  br label %82

82:                                               ; preds = %78, %74
  br label %83

83:                                               ; preds = %82
  %84 = load i32, i32* %5, align 4
  %85 = add nsw i32 %84, 1
  store i32 %85, i32* %5, align 4
  br label %20

86:                                               ; preds = %20
  store i32 0, i32* %5, align 4
  br label %87

87:                                               ; preds = %106, %86
  %88 = load i32, i32* %5, align 4
  %89 = load i32, i32* %8, align 4
  %90 = load i32, i32* %3, align 4
  %91 = sub nsw i32 %89, %90
  %92 = icmp sle i32 %88, %91
  br i1 %92, label %93, label %109

93:                                               ; preds = %87
  %94 = load i32, i32* %4, align 4
  %95 = load i32, i32* %5, align 4
  %96 = sext i32 %95 to i64
  %97 = getelementptr inbounds [500 x i32], [500 x i32]* %10, i64 0, i64 %96
  %98 = load i32, i32* %97, align 4
  %99 = icmp slt i32 %94, %98
  br i1 %99, label %100, label %105

100:                                              ; preds = %93
  %101 = load i32, i32* %5, align 4
  %102 = sext i32 %101 to i64
  %103 = getelementptr inbounds [500 x i32], [500 x i32]* %10, i64 0, i64 %102
  %104 = load i32, i32* %103, align 4
  store i32 %104, i32* %4, align 4
  br label %105

105:                                              ; preds = %100, %93
  br label %106

106:                                              ; preds = %105
  %107 = load i32, i32* %5, align 4
  %108 = add nsw i32 %107, 1
  store i32 %108, i32* %5, align 4
  br label %87

109:                                              ; preds = %87
  %110 = load i32, i32* %4, align 4
  %111 = icmp sgt i32 %110, 1
  br i1 %111, label %112, label %153

112:                                              ; preds = %109
  %113 = load i32, i32* %4, align 4
  %114 = call i32 (i8*, ...) @printf(i8* getelementptr inbounds ([4 x i8], [4 x i8]* @.str.1, i64 0, i64 0), i32 %113)
  store i32 0, i32* %5, align 4
  br label %115

115:                                              ; preds = %149, %112
  %116 = load i32, i32* %5, align 4
  %117 = load i32, i32* %8, align 4
  %118 = load i32, i32* %3, align 4
  %119 = sub nsw i32 %117, %118
  %120 = icmp sle i32 %116, %119
  br i1 %120, label %121, label %152

121:                                              ; preds = %115
  %122 = load i32, i32* %5, align 4
  %123 = sext i32 %122 to i64
  %124 = getelementptr inbounds [500 x i32], [500 x i32]* %10, i64 0, i64 %123
  %125 = load i32, i32* %124, align 4
  %126 = load i32, i32* %4, align 4
  %127 = icmp eq i32 %125, %126
  br i1 %127, label %128, label %148

128:                                              ; preds = %121
  %129 = load i32, i32* %5, align 4
  store i32 %129, i32* %6, align 4
  br label %130

130:                                              ; preds = %143, %128
  %131 = load i32, i32* %6, align 4
  %132 = load i32, i32* %5, align 4
  %133 = load i32, i32* %3, align 4
  %134 = add nsw i32 %132, %133
  %135 = icmp slt i32 %131, %134
  br i1 %135, label %136, label %146

136:                                              ; preds = %130
  %137 = load i32, i32* %6, align 4
  %138 = sext i32 %137 to i64
  %139 = getelementptr inbounds [500 x i8], [500 x i8]* %1, i64 0, i64 %138
  %140 = load i8, i8* %139, align 1
  %141 = sext i8 %140 to i32
  %142 = call i32 (i8*, ...) @printf(i8* getelementptr inbounds ([3 x i8], [3 x i8]* @.str.2, i64 0, i64 0), i32 %141)
  br label %143

143:                                              ; preds = %136
  %144 = load i32, i32* %6, align 4
  %145 = add nsw i32 %144, 1
  store i32 %145, i32* %6, align 4
  br label %130

146:                                              ; preds = %130
  %147 = call i32 (i8*, ...) @printf(i8* getelementptr inbounds ([2 x i8], [2 x i8]* @.str.3, i64 0, i64 0))
  br label %148

148:                                              ; preds = %146, %121
  br label %149

149:                                              ; preds = %148
  %150 = load i32, i32* %5, align 4
  %151 = add nsw i32 %150, 1
  store i32 %151, i32* %5, align 4
  br label %115

152:                                              ; preds = %115
  br label %155

153:                                              ; preds = %109
  %154 = call i32 (i8*, ...) @printf(i8* getelementptr inbounds ([3 x i8], [3 x i8]* @.str.4, i64 0, i64 0))
  br label %155

155:                                              ; preds = %153, %152
  %156 = call i32 (i8*, ...) @__isoc99_scanf(i8* getelementptr inbounds ([2 x i8], [2 x i8]* @.str.3, i64 0, i64 0))
  ret void
}